target datalayout = "e-m:e-p270:32:32-p271:32:32-p272:64:64-i64:64-i128:128-f80:128-n8:16:32:64-S128"
target triple = "x86_64-pc-linux-gnu"

; Function Attrs: inlinehint nounwind null_pointer_is_valid sspstrong uwtable
define internal zeroext i16 @pletoh16(ptr noundef %0) #7 {
  %2 = alloca ptr, align 8
  store ptr %0, ptr %2, align 8
  %3 = load ptr, ptr %2, align 8
  %4 = getelementptr i8, ptr %3, i64 1
  %5 = load i8, ptr %4, align 1
  %6 = zext i8 %5 to i16
  %7 = zext i16 %6 to i32
  %8 = shl i32 %7, 8
  %9 = load ptr, ptr %2, align 8
  %10 = getelementptr i8, ptr %9, i64 0
  %11 = load i8, ptr %10, align 1
  %12 = zext i8 %11 to i16
  %13 = zext i16 %12 to i32
  %14 = shl i32 %13, 0
  %15 = or i32 %8, %14
  %16 = trunc i32 %15 to i16
  ret i16 %16
}

; Function Attrs: inlinehint nounwind null_pointer_is_valid sspstrong uwtable
define internal i32 @pletoh32(ptr noundef %0) #7 {
  %2 = alloca ptr, align 8
  store ptr %0, ptr %2, align 8
  %3 = load ptr, ptr %2, align 8
  %4 = getelementptr i8, ptr %3, i64 3
  %5 = load i8, ptr %4, align 1
  %6 = zext i8 %5 to i32
  %7 = shl i32 %6, 24
  %8 = load ptr, ptr %2, align 8
  %9 = getelementptr i8, ptr %8, i64 2
  %10 = load i8, ptr %9, align 1
  %11 = zext i8 %10 to i32
  %12 = shl i32 %11, 16
  %13 = or i32 %7, %12
  %14 = load ptr, ptr %2, align 8
  %15 = getelementptr i8, ptr %14, i64 1
  %16 = load i8, ptr %15, align 1
  %17 = zext i8 %16 to i32
  %18 = shl i32 %17, 8
  %19 = or i32 %13, %18
  %20 = load ptr, ptr %2, align 8
  %21 = getelementptr i8, ptr %20, i64 0
  %22 = load i8, ptr %21, align 1
  %23 = zext i8 %22 to i32
  %24 = shl i32 %23, 0
  %25 = or i32 %19, %24
  ret i32 %25
}

; Function Attrs: null_pointer_is_valid sspstrong uwtable
define zeroext i16 @tvb_get_letohs(ptr noundef %0, i32 noundef %1) #0 {
  %3 = alloca ptr, align 8
  %4 = alloca i32, align 4
  %5 = alloca ptr, align 8
  store ptr %0, ptr %3, align 8
  store i32 %1, ptr %4, align 4
  call void @llvm.lifetime.start.p0(i64 8, ptr %5) #16
  %6 = load ptr, ptr %3, align 8
  %7 = load i32, ptr %4, align 4
  %8 = call ptr @fast_ensure_contiguous(ptr noundef %6, i32 noundef %7, i32 noundef 2)
  store ptr %8, ptr %5, align 8
  %9 = load ptr, ptr %5, align 8
  %10 = call zeroext i16 @pletoh16(ptr noundef %9)
  call void @llvm.lifetime.end.p0(i64 8, ptr %5) #16
  ret i16 %10
}

; Function Attrs: null_pointer_is_valid sspstrong uwtable
define i32 @tvb_get_letohl(ptr noundef %0, i32 noundef %1) #0 {
  %3 = alloca ptr, align 8
  %4 = alloca i32, align 4
  %5 = alloca ptr, align 8
  store ptr %0, ptr %3, align 8
  store i32 %1, ptr %4, align 4
  call void @llvm.lifetime.start.p0(i64 8, ptr %5) #16
  %6 = load ptr, ptr %3, align 8
  %7 = load i32, ptr %4, align 4
  %8 = call ptr @fast_ensure_contiguous(ptr noundef %6, i32 noundef %7, i32 noundef 4)
  store ptr %8, ptr %5, align 8
  %9 = load ptr, ptr %5, align 8
  %10 = call i32 @pletoh32(ptr noundef %9)
  call void @llvm.lifetime.end.p0(i64 8, ptr %5) #16
  ret i32 %10
}

; Function Attrs: null_pointer_is_valid sspstrong uwtable
define zeroext i8 @tvb_get_uint8(ptr noundef %0, i32 noundef %1) #0 {
  %3 = alloca ptr, align 8
  %4 = alloca i32, align 4
  %5 = alloca ptr, align 8
  store ptr %0, ptr %3, align 8
  store i32 %1, ptr %4, align 4
  call void @llvm.lifetime.start.p0(i64 8, ptr %5) #16
  %6 = load ptr, ptr %3, align 8
  %7 = load i32, ptr %4, align 4
  %8 = call ptr @fast_ensure_contiguous(ptr noundef %6, i32 noundef %7, i32 noundef 1)
  store ptr %8, ptr %5, align 8
  %9 = load ptr, ptr %5, align 8
  %10 = load i8, ptr %9, align 1
  call void @llvm.lifetime.end.p0(i64 8, ptr %5) #16
  ret i8 %10
}

; Function Attrs: null_pointer_is_valid sspstrong uwtable
define internal i64 @_tvb_get_bits64_le(ptr noundef %0, i32 noundef %1, i32 noundef %2) #0 {
  %4 = alloca ptr, align 8
  %5 = alloca i32, align 4
  %6 = alloca i32, align 4
  %7 = alloca i64, align 8
  %8 = alloca i32, align 4
  %9 = alloca i32, align 4
  %10 = alloca i32, align 4
  %11 = alloca i32, align 4
  store ptr %0, ptr %4, align 8
  store i32 %1, ptr %5, align 4
  store i32 %2, ptr %6, align 4
  call void @llvm.lifetime.start.p0(i64 8, ptr %7) #16
  store i64 0, ptr %7, align 8
  call void @llvm.lifetime.start.p0(i64 4, ptr %8) #16
  %12 = load i32, ptr %5, align 4
  %13 = udiv i32 %12, 8
  store i32 %13, ptr %8, align 4
  call void @llvm.lifetime.start.p0(i64 4, ptr %9) #16
  %14 = load i32, ptr %6, align 4
  store i32 %14, ptr %9, align 4
  call void @llvm.lifetime.start.p0(i64 4, ptr %10) #16
  store i32 0, ptr %10, align 4
  %15 = load i32, ptr %9, align 4
  %16 = icmp sgt i32 %15, 64
  br i1 %16, label %17, label %18

17:                                               ; preds = %3
  store i32 64, ptr %9, align 4
  br label %18

18:                                               ; preds = %17, %3
  %19 = load i32, ptr %5, align 4
  %20 = urem i32 %19, 8
  %21 = icmp ne i32 %20, 0
  br i1 %21, label %22, label %51

22:                                               ; preds = %18
  %23 = load i32, ptr %5, align 4
  %24 = urem i32 %23, 8
  %25 = sub i32 8, %24
  store i32 %25, ptr %10, align 4
  %26 = load ptr, ptr %4, align 8
  %27 = load i32, ptr %8, align 4
  %28 = call zeroext i8 @tvb_get_uint8(ptr noundef %26, i32 noundef %27)
  %29 = zext i8 %28 to i32
  %30 = load i32, ptr %5, align 4
  %31 = urem i32 %30, 8
  %32 = ashr i32 %29, %31
  %33 = sext i32 %32 to i64
  store i64 %33, ptr %7, align 8
  %34 = load i32, ptr %10, align 4
  %35 = load i32, ptr %9, align 4
  %36 = icmp sgt i32 %34, %35
  br i1 %36, label %37, label %44

37:                                               ; preds = %22
  %38 = load i32, ptr %9, align 4
  %39 = zext i32 %38 to i64
  %40 = shl i64 1, %39
  %41 = sub i64 %40, 1
  %42 = load i64, ptr %7, align 8
  %43 = and i64 %42, %41
  store i64 %43, ptr %7, align 8
  store i32 0, ptr %9, align 4
  br label %48

44:                                               ; preds = %22
  %45 = load i32, ptr %10, align 4
  %46 = load i32, ptr %9, align 4
  %47 = sub i32 %46, %45
  store i32 %47, ptr %9, align 4
  br label %48

48:                                               ; preds = %44, %37
  %49 = load i32, ptr %8, align 4
  %50 = add i32 %49, 1
  store i32 %50, ptr %8, align 4
  br label %51

51:                                               ; preds = %48, %18
  br label %52

52:                                               ; preds = %135, %51
  %53 = load i32, ptr %9, align 4
  %54 = icmp sgt i32 %53, 0
  br i1 %54, label %55, label %136

55:                                               ; preds = %52
  %56 = load i32, ptr %9, align 4
  %57 = icmp sge i32 %56, 32
  br i1 %57, label %58, label %74

58:                                               ; preds = %55
  %59 = load ptr, ptr %4, align 8
  %60 = load i32, ptr %8, align 4
  %61 = call i32 @tvb_get_letohl(ptr noundef %59, i32 noundef %60)
  %62 = zext i32 %61 to i64
  %63 = load i32, ptr %10, align 4
  %64 = zext i32 %63 to i64
  %65 = shl i64 %62, %64
  %66 = load i64, ptr %7, align 8
  %67 = or i64 %66, %65
  store i64 %67, ptr %7, align 8
  %68 = load i32, ptr %10, align 4
  %69 = add i32 %68, 32
  store i32 %69, ptr %10, align 4
  %70 = load i32, ptr %9, align 4
  %71 = sub i32 %70, 32
  store i32 %71, ptr %9, align 4
  %72 = load i32, ptr %8, align 4
  %73 = add i32 %72, 4
  store i32 %73, ptr %8, align 4
  br label %135

74:                                               ; preds = %55
  %75 = load i32, ptr %9, align 4
  %76 = icmp sge i32 %75, 16
  br i1 %76, label %77, label %93

77:                                               ; preds = %74
  %78 = load ptr, ptr %4, align 8
  %79 = load i32, ptr %8, align 4
  %80 = call zeroext i16 @tvb_get_letohs(ptr noundef %78, i32 noundef %79)
  %81 = zext i16 %80 to i64
  %82 = load i32, ptr %10, align 4
  %83 = zext i32 %82 to i64
  %84 = shl i64 %81, %83
  %85 = load i64, ptr %7, align 8
  %86 = or i64 %85, %84
  store i64 %86, ptr %7, align 8
  %87 = load i32, ptr %10, align 4
  %88 = add i32 %87, 16
  store i32 %88, ptr %10, align 4
  %89 = load i32, ptr %9, align 4
  %90 = sub i32 %89, 16
  store i32 %90, ptr %9, align 4
  %91 = load i32, ptr %8, align 4
  %92 = add i32 %91, 2
  store i32 %92, ptr %8, align 4
  br label %134

93:                                               ; preds = %74
  %94 = load i32, ptr %9, align 4
  %95 = icmp sge i32 %94, 8
  br i1 %95, label %96, label %112

96:                                               ; preds = %93
  %97 = load ptr, ptr %4, align 8
  %98 = load i32, ptr %8, align 4
  %99 = call zeroext i8 @tvb_get_uint8(ptr noundef %97, i32 noundef %98)
  %100 = zext i8 %99 to i64
  %101 = load i32, ptr %10, align 4
  %102 = zext i32 %101 to i64
  %103 = shl i64 %100, %102
  %104 = load i64, ptr %7, align 8
  %105 = or i64 %104, %103
  store i64 %105, ptr %7, align 8
  %106 = load i32, ptr %10, align 4
  %107 = add i32 %106, 8
  store i32 %107, ptr %10, align 4
  %108 = load i32, ptr %9, align 4
  %109 = sub i32 %108, 8
  store i32 %109, ptr %9, align 4
  %110 = load i32, ptr %8, align 4
  %111 = add i32 %110, 1
  store i32 %111, ptr %8, align 4
  br label %133

112:                                              ; preds = %93
  call void @llvm.lifetime.start.p0(i64 4, ptr %11) #16
  %113 = load i32, ptr %9, align 4
  %114 = shl i32 1, %113
  %115 = sub i32 %114, 1
  store i32 %115, ptr %11, align 4
  %116 = load ptr, ptr %4, align 8
  %117 = load i32, ptr %8, align 4
  %118 = call zeroext i8 @tvb_get_uint8(ptr noundef %116, i32 noundef %117)
  %119 = zext i8 %118 to i64
  %120 = load i32, ptr %11, align 4
  %121 = zext i32 %120 to i64
  %122 = and i64 %119, %121
  %123 = load i32, ptr %10, align 4
  %124 = zext i32 %123 to i64
  %125 = shl i64 %122, %124
  %126 = load i64, ptr %7, align 8
  %127 = or i64 %126, %125
  store i64 %127, ptr %7, align 8
  %128 = load i32, ptr %9, align 4
  %129 = load i32, ptr %10, align 4
  %130 = add i32 %129, %128
  store i32 %130, ptr %10, align 4
  store i32 0, ptr %9, align 4
  %131 = load i32, ptr %8, align 4
  %132 = add i32 %131, 1
  store i32 %132, ptr %8, align 4
  call void @llvm.lifetime.end.p0(i64 4, ptr %11) #16
  br label %133

133:                                              ; preds = %112, %96
  br label %134

134:                                              ; preds = %133, %77
  br label %135

135:                                              ; preds = %134, %58
  br label %52, !llvm.loop !21

136:                                              ; preds = %52
  %137 = load i64, ptr %7, align 8
  call void @llvm.lifetime.end.p0(i64 4, ptr %10) #16
  call void @llvm.lifetime.end.p0(i64 4, ptr %9) #16
  call void @llvm.lifetime.end.p0(i64 4, ptr %8) #16
  call void @llvm.lifetime.end.p0(i64 8, ptr %7) #16
  ret i64 %137
}

; Function Attrs: null_pointer_is_valid sspstrong uwtable
define i64 @tvb_get_bits64(ptr noundef %0, i32 noundef %1, i32 noundef %2, i32 noundef %3) #0 {
  %5 = alloca i64, align 8
  %6 = alloca ptr, align 8
  %7 = alloca i32, align 4
  %8 = alloca i32, align 4
  %9 = alloca i32, align 4
  store ptr %0, ptr %6, align 8
  store i32 %1, ptr %7, align 4
  store i32 %2, ptr %8, align 4
  store i32 %3, ptr %9, align 4
  %10 = load i32, ptr %9, align 4
  %11 = and i32 %10, -2147483648
  %12 = icmp ne i32 %11, 0
  br i1 %12, label %13, label %18

13:                                               ; preds = %4
  %14 = load ptr, ptr %6, align 8
  %15 = load i32, ptr %7, align 4
  %16 = load i32, ptr %8, align 4
  %17 = call i64 @_tvb_get_bits64_le(ptr noundef %14, i32 noundef %15, i32 noundef %16)
  store i64 %17, ptr %5, align 8
  br label %23

18:                                               ; preds = %4
  %19 = load ptr, ptr %6, align 8
  %20 = load i32, ptr %7, align 4
  %21 = load i32, ptr %8, align 4
  %22 = call i64 @_tvb_get_bits64(ptr noundef %19, i32 noundef %20, i32 noundef %21)
  store i64 %22, ptr %5, align 8
  br label %23

23:                                               ; preds = %18, %13
  %24 = load i64, ptr %5, align 8
  ret i64 %24
}