; Function Attrs: null_pointer_is_valid sspstrong uwtable
define i64 @tvb_get_bits64(ptr noundef %0, i32 noundef %1, i32 noundef %2, i32 noundef %3) local_unnamed_addr #0 {
  %.not = icmp sgt i32 %3, -1
  br i1 %.not, label %53, label %5

5:                                                ; preds = %4
  %6 = lshr i32 %1, 3
  %spec.store.select.i = tail call i32 @llvm.smin.i32(i32 %2, i32 64)
  %7 = and i32 %1, 7
  %.not.i = icmp eq i32 %7, 0
  br i1 %.not.i, label %21, label %8

8:                                                ; preds = %5
  %9 = sub nuw nsw i32 8, %7
  %10 = tail call fastcc ptr @fast_ensure_contiguous(ptr noundef %0, i32 noundef %6, i32 noundef 1)
  %11 = load i8, ptr %10, align 1
  %12 = zext i8 %11 to i32
  %13 = lshr i32 %12, %7
  %14 = zext nneg i32 %13 to i64
  %15 = icmp sgt i32 %9, %spec.store.select.i
  %16 = zext nneg i32 %spec.store.select.i to i64
  %notmask.i = shl nsw i64 -1, %16
  %17 = xor i64 %notmask.i, -1
  %18 = sub nsw i32 %spec.store.select.i, %9
  %19 = select i1 %15, i64 %17, i64 127
  %.1.i = and i64 %19, %14
  %20 = add nuw nsw i32 %6, 1
  br i1 %15, label %_tvb_get_bits64_le.exit, label %21

21:                                               ; preds = %8, %5
  %.056.i = phi i32 [ %20, %8 ], [ %6, %5 ]
  %.052.i = phi i32 [ %18, %8 ], [ %spec.store.select.i, %5 ]
  %.049.i = phi i32 [ %9, %8 ], [ 0, %5 ]
  %.0.i = phi i64 [ %.1.i, %8 ], [ 0, %5 ]
  %22 = icmp sgt i32 %.052.i, 0
  br i1 %22, label %.lr.ph.i, label %_tvb_get_bits64_le.exit

.lr.ph.i:                                         ; preds = %21, %47
  %.265.i = phi i64 [ %.3.i, %47 ], [ %.0.i, %21 ]
  %.15064.i = phi i32 [ %50, %47 ], [ %.049.i, %21 ]
  %.25463.i = phi i32 [ %51, %47 ], [ %.052.i, %21 ]
  %.15762.i = phi i32 [ %52, %47 ], [ %.056.i, %21 ]
  %23 = icmp samesign ugt i32 %.25463.i, 31
  br i1 %23, label %24, label %28

24:                                               ; preds = %.lr.ph.i
  %25 = tail call fastcc ptr @fast_ensure_contiguous(ptr noundef %0, i32 noundef %.15762.i, i32 noundef 4)
  %26 = load i32, ptr %25, align 1
  %27 = zext i32 %26 to i64
  br label %47

28:                                               ; preds = %.lr.ph.i
  %29 = icmp samesign ugt i32 %.25463.i, 15
  br i1 %29, label %30, label %33

30:                                               ; preds = %28
  %31 = tail call fastcc ptr @fast_ensure_contiguous(ptr noundef %0, i32 noundef %.15762.i, i32 noundef 2)
  %.val.i.i = load i16, ptr %31, align 1
  %32 = zext i16 %.val.i.i to i64
  br label %47

33:                                               ; preds = %28
  %34 = icmp samesign ugt i32 %.25463.i, 7
  br i1 %34, label %35, label %.thread70.i

35:                                               ; preds = %33
  %36 = tail call fastcc ptr @fast_ensure_contiguous(ptr noundef %0, i32 noundef %.15762.i, i32 noundef 1)
  %37 = load i8, ptr %36, align 1
  %38 = zext i8 %37 to i64
  br label %47

.thread70.i:                                      ; preds = %33
  %notmask61.i = shl nsw i32 -1, %.25463.i
  %39 = xor i32 %notmask61.i, -1
  %40 = tail call fastcc ptr @fast_ensure_contiguous(ptr noundef %0, i32 noundef %.15762.i, i32 noundef 1)
  %41 = load i8, ptr %40, align 1
  %42 = zext i8 %41 to i32
  %43 = and i32 %42, %39
  %44 = zext nneg i32 %43 to i64
  %45 = zext nneg i32 %.15064.i to i64
  %46 = shl i64 %44, %45
  %.375.i = or i64 %46, %.265.i
  br label %_tvb_get_bits64_le.exit

47:                                               ; preds = %35, %30, %24
  %.sink83.i = phi i64 [ %32, %30 ], [ %38, %35 ], [ %27, %24 ]
  %.sink82.i = phi i32 [ 16, %30 ], [ 8, %35 ], [ 32, %24 ]
  %.sink81.i = phi i32 [ -16, %30 ], [ -8, %35 ], [ -32, %24 ]
  %.sink.i = phi i32 [ 2, %30 ], [ 1, %35 ], [ 4, %24 ]
  %48 = zext nneg i32 %.15064.i to i64
  %49 = shl i64 %.sink83.i, %48
  %50 = add i32 %.sink82.i, %.15064.i
  %51 = add nsw i32 %.sink81.i, %.25463.i
  %52 = add i32 %.sink.i, %.15762.i
  %.3.i = or i64 %49, %.265.i
  %.not85.i = icmp eq i32 %51, 0
  br i1 %.not85.i, label %_tvb_get_bits64_le.exit, label %.lr.ph.i, !llvm.loop !23

53:                                               ; preds = %4
  %54 = tail call fastcc i64 @_tvb_get_bits64(ptr noundef %0, i32 noundef %1, i32 noundef %2)
  br label %_tvb_get_bits64_le.exit

_tvb_get_bits64_le.exit:                          ; preds = %47, %.thread70.i, %21, %8, %53
  %.0 = phi i64 [ %54, %53 ], [ %.0.i, %21 ], [ %.375.i, %.thread70.i ], [ %.1.i, %8 ], [ %.3.i, %47 ]
  ret i64 %.0
}